; ModuleID = '39/1184.c'
source_filename = "39/1184.c"
target datalayout = "e-m:e-p270:32:32-p271:32:32-p272:64:64-i64:64-f80:128-n8:16:32:64-S128"
target triple = "x86_64-pc-linux-gnu"

%struct.student = type { [25 x i8], i32, i32, i8, i8, i32, i32 }

@.str = private unnamed_addr constant [3 x i8] c"%d\00", align 1
@.str.1 = private unnamed_addr constant [18 x i8] c"%s %d %d %c %c %d\00", align 1
@.str.2 = private unnamed_addr constant [4 x i8] c"%s\0A\00", align 1
@.str.3 = private unnamed_addr constant [4 x i8] c"%d\0A\00", align 1

; Function Attrs: noinline nounwind uwtable
define dso_local i32 @main() #0 {
  %1 = alloca i32, align 4
  %2 = alloca [100 x %struct.student], align 16
  %3 = alloca i32, align 4
  %4 = alloca i32, align 4
  %5 = alloca i32, align 4
  %6 = alloca i32, align 4
  %7 = alloca i32, align 4
  store i32 0, i32* %1, align 4
  %8 = call i32 (i8*, ...) @__isoc99_scanf(i8* getelementptr inbounds ([3 x i8], [3 x i8]* @.str, i64 0, i64 0), i32* %3)
  store i32 0, i32* %4, align 4
  br label %9

9:                                                ; preds = %48, %0
  %10 = load i32, i32* %4, align 4
  %11 = load i32, i32* %3, align 4
  %12 = icmp slt i32 %10, %11
  br i1 %12, label %13, label %51

13:                                               ; preds = %9
  %14 = load i32, i32* %4, align 4
  %15 = sext i32 %14 to i64
  %16 = getelementptr inbounds [100 x %struct.student], [100 x %struct.student]* %2, i64 0, i64 %15
  %17 = getelementptr inbounds %struct.student, %struct.student* %16, i32 0, i32 0
  %18 = getelementptr inbounds [25 x i8], [25 x i8]* %17, i64 0, i64 0
  %19 = load i32, i32* %4, align 4
  %20 = sext i32 %19 to i64
  %21 = getelementptr inbounds [100 x %struct.student], [100 x %struct.student]* %2, i64 0, i64 %20
  %22 = getelementptr inbounds %struct.student, %struct.student* %21, i32 0, i32 1
  %23 = load i32, i32* %4, align 4
  %24 = sext i32 %23 to i64
  %25 = getelementptr inbounds [100 x %struct.student], [100 x %struct.student]* %2, i64 0, i64 %24
  %26 = getelementptr inbounds %struct.student, %struct.student* %25, i32 0, i32 2
  %27 = load i32, i32* %4, align 4
  %28 = sext i32 %27 to i64
  %29 = getelementptr inbounds [100 x %struct.student], [100 x %struct.student]* %2, i64 0, i64 %28
  %30 = getelementptr inbounds %struct.student, %struct.student* %29, i32 0, i32 3
  %31 = load i32, i32* %4, align 4
  %32 = sext i32 %31 to i64
  %33 = getelementptr inbounds [100 x %struct.student], [100 x %struct.student]* %2, i64 0, i64 %32
  %34 = getelementptr inbounds %struct.student, %struct.student* %33, i32 0, i32 4
  %35 = load i32, i32* %4, align 4
  %36 = sext i32 %35 to i64
  %37 = getelementptr inbounds [100 x %struct.student], [100 x %struct.student]* %2, i64 0, i64 %36
  %38 = getelementptr inbounds %struct.student, %struct.student* %37, i32 0, i32 5
  %39 = call i32 (i8*, ...) @__isoc99_scanf(i8* getelementptr inbounds ([18 x i8], [18 x i8]* @.str.1, i64 0, i64 0), i8* %18, i32* %22, i32* %26, i8* %30, i8* %34, i32* %38)
  %40 = load i32, i32* %4, align 4
  %41 = sext i32 %40 to i64
  %42 = getelementptr inbounds [100 x %struct.student], [100 x %struct.student]* %2, i64 0, i64 %41
  %43 = call i32 @comp_money(%struct.student* byval(%struct.student) align 8 %42)
  %44 = load i32, i32* %4, align 4
  %45 = sext i32 %44 to i64
  %46 = getelementptr inbounds [100 x %struct.student], [100 x %struct.student]* %2, i64 0, i64 %45
  %47 = getelementptr inbounds %struct.student, %struct.student* %46, i32 0, i32 6
  store i32 %43, i32* %47, align 4
  br label %48

48:                                               ; preds = %13
  %49 = load i32, i32* %4, align 4
  %50 = add nsw i32 %49, 1
  store i32 %50, i32* %4, align 4
  br label %9

51:                                               ; preds = %9
  %52 = getelementptr inbounds [100 x %struct.student], [100 x %struct.student]* %2, i64 0, i64 0
  %53 = getelementptr inbounds %struct.student, %struct.student* %52, i32 0, i32 6
  %54 = load i32, i32* %53, align 4
  store i32 %54, i32* %6, align 4
  store i32 %54, i32* %5, align 4
  store i32 0, i32* %7, align 4
  store i32 1, i32* %4, align 4
  br label %55

55:                                               ; preds = %82, %51
  %56 = load i32, i32* %4, align 4
  %57 = load i32, i32* %3, align 4
  %58 = icmp slt i32 %56, %57
  br i1 %58, label %59, label %85

59:                                               ; preds = %55
  %60 = load i32, i32* %4, align 4
  %61 = sext i32 %60 to i64
  %62 = getelementptr inbounds [100 x %struct.student], [100 x %struct.student]* %2, i64 0, i64 %61
  %63 = getelementptr inbounds %struct.student, %struct.student* %62, i32 0, i32 6
  %64 = load i32, i32* %63, align 4
  %65 = load i32, i32* %6, align 4
  %66 = icmp sgt i32 %64, %65
  br i1 %66, label %67, label %74

67:                                               ; preds = %59
  %68 = load i32, i32* %4, align 4
  %69 = sext i32 %68 to i64
  %70 = getelementptr inbounds [100 x %struct.student], [100 x %struct.student]* %2, i64 0, i64 %69
  %71 = getelementptr inbounds %struct.student, %struct.student* %70, i32 0, i32 6
  %72 = load i32, i32* %71, align 4
  store i32 %72, i32* %6, align 4
  %73 = load i32, i32* %4, align 4
  store i32 %73, i32* %7, align 4
  br label %74

74:                                               ; preds = %67, %59
  %75 = load i32, i32* %4, align 4
  %76 = sext i32 %75 to i64
  %77 = getelementptr inbounds [100 x %struct.student], [100 x %struct.student]* %2, i64 0, i64 %76
  %78 = getelementptr inbounds %struct.student, %struct.student* %77, i32 0, i32 6
  %79 = load i32, i32* %78, align 4
  %80 = load i32, i32* %5, align 4
  %81 = add nsw i32 %80, %79
  store i32 %81, i32* %5, align 4
  br label %82

82:                                               ; preds = %74
  %83 = load i32, i32* %4, align 4
  %84 = add nsw i32 %83, 1
  store i32 %84, i32* %4, align 4
  br label %55

85:                                               ; preds = %55
  %86 = load i32, i32* %7, align 4
  %87 = sext i32 %86 to i64
  %88 = getelementptr inbounds [100 x %struct.student], [100 x %struct.student]* %2, i64 0, i64 %87
  %89 = getelementptr inbounds %struct.student, %struct.student* %88, i32 0, i32 0
  %90 = getelementptr inbounds [25 x i8], [25 x i8]* %89, i64 0, i64 0
  %91 = call i32 (i8*, ...) @printf(i8* getelementptr inbounds ([4 x i8], [4 x i8]* @.str.2, i64 0, i64 0), i8* %90)
  %92 = load i32, i32* %7, align 4
  %93 = sext i32 %92 to i64
  %94 = getelementptr inbounds [100 x %struct.student], [100 x %struct.student]* %2, i64 0, i64 %93
  %95 = getelementptr inbounds %struct.student, %struct.student* %94, i32 0, i32 6
  %96 = load i32, i32* %95, align 4
  %97 = call i32 (i8*, ...) @printf(i8* getelementptr inbounds ([4 x i8], [4 x i8]* @.str.3, i64 0, i64 0), i32 %96)
  %98 = load i32, i32* %5, align 4
  %99 = call i32 (i8*, ...) @printf(i8* getelementptr inbounds ([4 x i8], [4 x i8]* @.str.3, i64 0, i64 0), i32 %98)
  ret i32 0
}

declare dso_local i32 @__isoc99_scanf(i8*, ...) #1

; Function Attrs: noinline nounwind uwtable
define dso_local i32 @comp_money(%struct.student* byval(%struct.student) align 8 %0) #0 {
  %2 = alloca i32, align 4
  store i32 0, i32* %2, align 4
  %3 = getelementptr inbounds %struct.student, %struct.student* %0, i32 0, i32 1
  %4 = load i32, i32* %3, align 4
  %5 = icmp sgt i32 %4, 80
  br i1 %5, label %6, label %13

6:                                                ; preds = %1
  %7 = getelementptr inbounds %struct.student, %struct.student* %0, i32 0, i32 5
  %8 = load i32, i32* %7, align 8
  %9 = icmp sge i32 %8, 1
  br i1 %9, label %10, label %13

10:                                               ; preds = %6
  %11 = load i32, i32* %2, align 4
  %12 = add nsw i32 %11, 8000
  store i32 %12, i32* %2, align 4
  br label %13

13:                                               ; preds = %10, %6, %1
  %14 = getelementptr inbounds %struct.student, %struct.student* %0, i32 0, i32 1
  %15 = load i32, i32* %14, align 4
  %16 = icmp sgt i32 %15, 85
  br i1 %16, label %17, label %24

17:                                               ; preds = %13
  %18 = getelementptr inbounds %struct.student, %struct.student* %0, i32 0, i32 2
  %19 = load i32, i32* %18, align 8
  %20 = icmp sgt i32 %19, 80
  br i1 %20, label %21, label %24

21:                                               ; preds = %17
  %22 = load i32, i32* %2, align 4
  %23 = add nsw i32 %22, 4000
  store i32 %23, i32* %2, align 4
  br label %24

24:                                               ; preds = %21, %17, %13
  %25 = getelementptr inbounds %struct.student, %struct.student* %0, i32 0, i32 1
  %26 = load i32, i32* %25, align 4
  %27 = icmp sgt i32 %26, 90
  br i1 %27, label %28, label %31

28:                                               ; preds = %24
  %29 = load i32, i32* %2, align 4
  %30 = add nsw i32 %29, 2000
  store i32 %30, i32* %2, align 4
  br label %31

31:                                               ; preds = %28, %24
  %32 = getelementptr inbounds %struct.student, %struct.student* %0, i32 0, i32 1
  %33 = load i32, i32* %32, align 4
  %34 = icmp sgt i32 %33, 85
  br i1 %34, label %35, label %43

35:                                               ; preds = %31
  %36 = getelementptr inbounds %struct.student, %struct.student* %0, i32 0, i32 4
  %37 = load i8, i8* %36, align 1
  %38 = sext i8 %37 to i32
  %39 = icmp eq i32 %38, 89
  br i1 %39, label %40, label %43

40:                                               ; preds = %35
  %41 = load i32, i32* %2, align 4
  %42 = add nsw i32 %41, 1000
  store i32 %42, i32* %2, align 4
  br label %43

43:                                               ; preds = %40, %35, %31
  %44 = getelementptr inbounds %struct.student, %struct.student* %0, i32 0, i32 2
  %45 = load i32, i32* %44, align 8
  %46 = icmp sgt i32 %45, 80
  br i1 %46, label %47, label %55

47:                                               ; preds = %43
  %48 = getelementptr inbounds %struct.student, %struct.student* %0, i32 0, i32 3
  %49 = load i8, i8* %48, align 4
  %50 = sext i8 %49 to i32
  %51 = icmp eq i32 %50, 89
  br i1 %51, label %52, label %55

52:                                               ; preds = %47
  %53 = load i32, i32* %2, align 4
  %54 = add nsw i32 %53, 850
  store i32 %54, i32* %2, align 4
  br label %55

55:                                               ; preds = %52, %47, %43
  %56 = load i32, i32* %2, align 4
  ret i32 %56
}

declare dso_local i32 @printf(i8*, ...) #1


!llvm.module.flags = !{!0}
!llvm.ident = !{!1}

!0 = !{i32 1, !"wchar_size", i32 4}
!1 = !{!"clang version 10.0.0-4ubuntu1 "}
